; Function Attrs: mustprogress nofree norecurse nosync nounwind willreturn memory(read, argmem: readwrite, inaccessiblemem: none) uwtable
define hidden i32 @lxb_encoding_decode_x_mac_cyrillic_single(ptr noundef readnone captures(none) %0, ptr noundef captures(none) %1, ptr noundef readnone captures(none) %2) local_unnamed_addr #7 {
  %4 = load ptr, ptr %1, align 8, !tbaa !4
  %5 = load i8, ptr %4, align 1, !tbaa !24
  %6 = icmp sgt i8 %5, -1
  %7 = getelementptr inbounds nuw i8, ptr %4, i64 1
  store ptr %7, ptr %1, align 8, !tbaa !4
  %8 = load i8, ptr %4, align 1, !tbaa !24
  br i1 %6, label %9, label %11

9:                                                ; preds = %3
  %10 = zext i8 %8 to i32
  br label %16

11:                                               ; preds = %3
  %12 = zext i8 %8 to i64
  %13 = add nsw i64 %12, -128
  %14 = getelementptr inbounds [128 x %struct.lxb_encoding_single_index_t], ptr @lxb_encoding_single_index_x_mac_cyrillic, i64 0, i64 %13, i32 2
  %15 = load i32, ptr %14, align 4, !tbaa !28
  br label %16

16:                                               ; preds = %11, %9
  %.0 = phi i32 [ %10, %9 ], [ %15, %11 ]
  ret i32 %.0
}